; Function Attrs: mustprogress uwtable
define hidden void @_ZNK4cvc58internal7printer3ast10AstPrinter17toStreamCmdAssertERSoNS0_12NodeTemplateILb1EEE(ptr nonnull readnone align 8 captures(none) %0, ptr noundef nonnull align 8 dereferenceable(8) %1, ptr noundef readonly captures(none) %2) unnamed_addr #3 align 2 personality ptr @__gxx_personality_v0 {
_ZN4cvc58internallsERSoNS0_12NodeTemplateILb0EEE.exit:
  %3 = alloca i8, align 1
  %4 = tail call noundef nonnull align 8 dereferenceable(8) ptr @_ZSt16__ostream_insertIcSt11char_traitsIcEERSt13basic_ostreamIT_T0_ES6_PKS3_l(ptr noundef nonnull align 8 dereferenceable(8) %1, ptr noundef nonnull @.str.14, i64 noundef 7)
  %5 = load ptr, ptr %2, align 8, !tbaa !19
  tail call void @_ZNK4cvc58internal4expr9NodeValue8toStreamERSo(ptr noundef nonnull align 8 dereferenceable(24) %5, ptr noundef nonnull align 8 dereferenceable(8) %1)
  call void @llvm.lifetime.start.p0(i64 1, ptr nonnull %3)
  store i8 41, ptr %3, align 1, !tbaa !14
  %6 = load ptr, ptr %1, align 8, !tbaa !3
  %7 = getelementptr i8, ptr %6, i64 -24
  %8 = load i64, ptr %7, align 8
  %9 = getelementptr inbounds i8, ptr %1, i64 %8
  %10 = getelementptr inbounds nuw i8, ptr %9, i64 16
  %11 = load i64, ptr %10, align 8, !tbaa !46
  %.not.i = icmp eq i64 %11, 0
  br i1 %.not.i, label %14, label %12

12:                                               ; preds = %_ZN4cvc58internallsERSoNS0_12NodeTemplateILb0EEE.exit
  %13 = call noundef nonnull align 8 dereferenceable(8) ptr @_ZSt16__ostream_insertIcSt11char_traitsIcEERSt13basic_ostreamIT_T0_ES6_PKS3_l(ptr noundef nonnull align 8 dereferenceable(8) %1, ptr noundef nonnull %3, i64 noundef 1)
  br label %16

14:                                               ; preds = %_ZN4cvc58internallsERSoNS0_12NodeTemplateILb0EEE.exit
  %15 = tail call noundef nonnull align 8 dereferenceable(8) ptr @_ZNSo3putEc(ptr noundef nonnull align 8 dereferenceable(8) %1, i8 noundef signext 41)
  br label %16

16:                                               ; preds = %12, %14
  %.0.i = phi ptr [ %13, %12 ], [ %1, %14 ]
  call void @llvm.lifetime.end.p0(i64 1, ptr nonnull %3)
  %17 = load ptr, ptr %.0.i, align 8, !tbaa !3
  %18 = getelementptr i8, ptr %17, i64 -24
  %19 = load i64, ptr %18, align 8
  %20 = getelementptr inbounds i8, ptr %.0.i, i64 %19
  %21 = getelementptr inbounds nuw i8, ptr %20, i64 240
  %22 = load ptr, ptr %21, align 8, !tbaa !69
  %.not.i.i.i = icmp eq ptr %22, null
  br i1 %.not.i.i.i, label %.noexc4, label %_ZSt13__check_facetISt5ctypeIcEERKT_PS3_.exit.i.i

.noexc4:                                          ; preds = %16
  call void @_ZSt16__throw_bad_castv() #24
  unreachable

_ZSt13__check_facetISt5ctypeIcEERKT_PS3_.exit.i.i: ; preds = %16
  %23 = getelementptr inbounds nuw i8, ptr %22, i64 56
  %24 = load i8, ptr %23, align 8, !tbaa !77
  %.not.i1.i.i = icmp eq i8 %24, 0
  br i1 %.not.i1.i.i, label %.noexc5, label %25

25:                                               ; preds = %_ZSt13__check_facetISt5ctypeIcEERKT_PS3_.exit.i.i
  %26 = getelementptr inbounds nuw i8, ptr %22, i64 67
  %27 = load i8, ptr %26, align 1, !tbaa !14
  br label %_ZNKSt9basic_iosIcSt11char_traitsIcEE5widenEc.exit.i

.noexc5:                                          ; preds = %_ZSt13__check_facetISt5ctypeIcEERKT_PS3_.exit.i.i
  call void @_ZNKSt5ctypeIcE13_M_widen_initEv(ptr noundef nonnull align 8 dereferenceable(570) %22)
  %28 = load ptr, ptr %22, align 8, !tbaa !3
  %29 = getelementptr inbounds nuw i8, ptr %28, i64 48
  %30 = load ptr, ptr %29, align 8
  %31 = call noundef signext i8 %30(ptr noundef nonnull align 8 dereferenceable(570) %22, i8 noundef signext 10)
  br label %_ZNKSt9basic_iosIcSt11char_traitsIcEE5widenEc.exit.i

_ZNKSt9basic_iosIcSt11char_traitsIcEE5widenEc.exit.i: ; preds = %.noexc5, %25
  %.0.i.i.i = phi i8 [ %27, %25 ], [ %31, %.noexc5 ]
  %32 = call noundef nonnull align 8 dereferenceable(8) ptr @_ZNSo3putEc(ptr noundef nonnull align 8 dereferenceable(8) %.0.i, i8 noundef signext %.0.i.i.i)
  %33 = call noundef nonnull align 8 dereferenceable(8) ptr @_ZNSo5flushEv(ptr noundef nonnull align 8 dereferenceable(8) %32)
  ret void
}